target datalayout = "e-m:e-p270:32:32-p271:32:32-p272:64:64-i64:64-i128:128-f80:128-n8:16:32:64-S128"
target triple = "x86_64-pc-linux-gnu"

%struct.bipbuf_t = type { i64, i32, i32, i32, i32, [0 x i8] }

; Function Attrs: nounwind uwtable
define internal void @__check_for_switch_to_b(ptr noundef %0) #0 {
  %2 = alloca ptr, align 8
  store ptr %0, ptr %2, align 8, !tbaa !4
  %3 = load ptr, ptr %2, align 8, !tbaa !4
  %4 = getelementptr inbounds nuw %struct.bipbuf_t, ptr %3, i32 0, i32 0
  %5 = load i64, ptr %4, align 8, !tbaa !10
  %6 = load ptr, ptr %2, align 8, !tbaa !4
  %7 = getelementptr inbounds nuw %struct.bipbuf_t, ptr %6, i32 0, i32 2
  %8 = load i32, ptr %7, align 4, !tbaa !8
  %9 = zext i32 %8 to i64
  %10 = sub i64 %5, %9
  %11 = load ptr, ptr %2, align 8, !tbaa !4
  %12 = getelementptr inbounds nuw %struct.bipbuf_t, ptr %11, i32 0, i32 1
  %13 = load i32, ptr %12, align 8, !tbaa !8
  %14 = load ptr, ptr %2, align 8, !tbaa !4
  %15 = getelementptr inbounds nuw %struct.bipbuf_t, ptr %14, i32 0, i32 3
  %16 = load i32, ptr %15, align 8, !tbaa !8
  %17 = sub i32 %13, %16
  %18 = zext i32 %17 to i64
  %19 = icmp ult i64 %10, %18
  br i1 %19, label %20, label %23

20:                                               ; preds = %1
  %21 = load ptr, ptr %2, align 8, !tbaa !4
  %22 = getelementptr inbounds nuw %struct.bipbuf_t, ptr %21, i32 0, i32 4
  store i32 1, ptr %22, align 4, !tbaa !8
  br label %23

23:                                               ; preds = %20, %1
  ret void
}

; Function Attrs: nounwind uwtable
define dso_local i32 @bipbuf_unused(ptr noundef %0) #0 {
  %2 = alloca i32, align 4
  %3 = alloca ptr, align 8
  store ptr %0, ptr %3, align 8, !tbaa !4
  %4 = load ptr, ptr %3, align 8, !tbaa !4
  %5 = getelementptr inbounds nuw %struct.bipbuf_t, ptr %4, i32 0, i32 4
  %6 = load i32, ptr %5, align 4, !tbaa !8
  %7 = icmp eq i32 1, %6
  br i1 %7, label %8, label %16

8:                                                ; preds = %1
  %9 = load ptr, ptr %3, align 8, !tbaa !4
  %10 = getelementptr inbounds nuw %struct.bipbuf_t, ptr %9, i32 0, i32 1
  %11 = load i32, ptr %10, align 8, !tbaa !8
  %12 = load ptr, ptr %3, align 8, !tbaa !4
  %13 = getelementptr inbounds nuw %struct.bipbuf_t, ptr %12, i32 0, i32 3
  %14 = load i32, ptr %13, align 8, !tbaa !8
  %15 = sub i32 %11, %14
  store i32 %15, ptr %2, align 4
  br label %26

16:                                               ; preds = %1
  %17 = load ptr, ptr %3, align 8, !tbaa !4
  %18 = getelementptr inbounds nuw %struct.bipbuf_t, ptr %17, i32 0, i32 0
  %19 = load i64, ptr %18, align 8, !tbaa !10
  %20 = load ptr, ptr %3, align 8, !tbaa !4
  %21 = getelementptr inbounds nuw %struct.bipbuf_t, ptr %20, i32 0, i32 2
  %22 = load i32, ptr %21, align 4, !tbaa !8
  %23 = zext i32 %22 to i64
  %24 = sub i64 %19, %23
  %25 = trunc i64 %24 to i32
  store i32 %25, ptr %2, align 4
  br label %26

26:                                               ; preds = %16, %8
  %27 = load i32, ptr %2, align 4
  ret i32 %27
}

; Function Attrs: nounwind uwtable
define dso_local i32 @bipbuf_push(ptr noundef %0, i32 noundef %1) #0 {
  %3 = alloca i32, align 4
  %4 = alloca ptr, align 8
  %5 = alloca i32, align 4
  store ptr %0, ptr %4, align 8, !tbaa !4
  store i32 %1, ptr %5, align 4, !tbaa !8
  %6 = load ptr, ptr %4, align 8, !tbaa !4
  %7 = call i32 @bipbuf_unused(ptr noundef %6)
  %8 = load i32, ptr %5, align 4, !tbaa !8
  %9 = icmp slt i32 %7, %8
  br i1 %9, label %10, label %11

10:                                               ; preds = %2
  store i32 0, ptr %3, align 4
  br label %31

11:                                               ; preds = %2
  %12 = load ptr, ptr %4, align 8, !tbaa !4
  %13 = getelementptr inbounds nuw %struct.bipbuf_t, ptr %12, i32 0, i32 4
  %14 = load i32, ptr %13, align 4, !tbaa !8
  %15 = icmp eq i32 1, %14
  br i1 %15, label %16, label %22

16:                                               ; preds = %11
  %17 = load i32, ptr %5, align 4, !tbaa !8
  %18 = load ptr, ptr %4, align 8, !tbaa !4
  %19 = getelementptr inbounds nuw %struct.bipbuf_t, ptr %18, i32 0, i32 3
  %20 = load i32, ptr %19, align 8, !tbaa !8
  %21 = add i32 %20, %17
  store i32 %21, ptr %19, align 8, !tbaa !8
  br label %28

22:                                               ; preds = %11
  %23 = load i32, ptr %5, align 4, !tbaa !8
  %24 = load ptr, ptr %4, align 8, !tbaa !4
  %25 = getelementptr inbounds nuw %struct.bipbuf_t, ptr %24, i32 0, i32 2
  %26 = load i32, ptr %25, align 4, !tbaa !8
  %27 = add i32 %26, %23
  store i32 %27, ptr %25, align 4, !tbaa !8
  br label %28

28:                                               ; preds = %22, %16
  %29 = load ptr, ptr %4, align 8, !tbaa !4
  call void @__check_for_switch_to_b(ptr noundef %29)
  %30 = load i32, ptr %5, align 4, !tbaa !8
  store i32 %30, ptr %3, align 4
  br label %31

31:                                               ; preds = %28, %10
  %32 = load i32, ptr %3, align 4
  ret i32 %32
}