; Function Attrs: mustprogress nofree norecurse nosync nounwind willreturn memory(argmem: readwrite) uwtable
define dso_local noundef i32 @bipbuf_push(ptr noundef captures(none) %0, i32 noundef %1) local_unnamed_addr #6 {
  %3 = getelementptr inbounds nuw i8, ptr %0, i64 20
  %4 = load i32, ptr %3, align 4, !tbaa !4
  %5 = icmp eq i32 %4, 1
  br i1 %5, label %bipbuf_unused.exit, label %bipbuf_unused.exit.thread

bipbuf_unused.exit:                               ; preds = %2
  %6 = getelementptr inbounds nuw i8, ptr %0, i64 8
  %7 = load i32, ptr %6, align 8, !tbaa !4
  %8 = getelementptr inbounds nuw i8, ptr %0, i64 16
  %9 = load i32, ptr %8, align 8, !tbaa !4
  %10 = sub i32 %7, %9
  %11 = icmp slt i32 %10, %1
  br i1 %11, label %__check_for_switch_to_b.exit, label %18

bipbuf_unused.exit.thread:                        ; preds = %2
  %12 = load i64, ptr %0, align 8, !tbaa !8
  %13 = getelementptr inbounds nuw i8, ptr %0, i64 12
  %14 = load i32, ptr %13, align 4, !tbaa !4
  %15 = trunc i64 %12 to i32
  %16 = sub i32 %15, %14
  %17 = icmp slt i32 %16, %1
  br i1 %17, label %__check_for_switch_to_b.exit, label %.thread

18:                                               ; preds = %bipbuf_unused.exit
  %19 = add i32 %9, %1
  store i32 %19, ptr %8, align 8, !tbaa !4
  %.pre = load i64, ptr %0, align 8, !tbaa !8
  %.phi.trans.insert = getelementptr inbounds nuw i8, ptr %0, i64 12
  %.pre11 = load i32, ptr %.phi.trans.insert, align 4, !tbaa !4
  br label %21

.thread:                                          ; preds = %bipbuf_unused.exit.thread
  %20 = add i32 %14, %1
  store i32 %20, ptr %13, align 4, !tbaa !4
  %.phi.trans.insert12 = getelementptr inbounds nuw i8, ptr %0, i64 8
  %.pre13 = load i32, ptr %.phi.trans.insert12, align 8, !tbaa !4
  %.phi.trans.insert14 = getelementptr inbounds nuw i8, ptr %0, i64 16
  %.pre15 = load i32, ptr %.phi.trans.insert14, align 8, !tbaa !4
  br label %21

21:                                               ; preds = %.thread, %18
  %22 = phi i32 [ %.pre15, %.thread ], [ %19, %18 ]
  %23 = phi i32 [ %.pre13, %.thread ], [ %7, %18 ]
  %24 = phi i32 [ %20, %.thread ], [ %.pre11, %18 ]
  %25 = phi i64 [ %12, %.thread ], [ %.pre, %18 ]
  %26 = zext i32 %24 to i64
  %27 = sub i64 %25, %26
  %28 = sub i32 %23, %22
  %29 = zext i32 %28 to i64
  %30 = icmp ult i64 %27, %29
  br i1 %30, label %31, label %__check_for_switch_to_b.exit

31:                                               ; preds = %21
  store i32 1, ptr %3, align 4, !tbaa !4
  br label %__check_for_switch_to_b.exit

__check_for_switch_to_b.exit:                     ; preds = %31, %21, %bipbuf_unused.exit.thread, %bipbuf_unused.exit
  %.0 = phi i32 [ 0, %bipbuf_unused.exit ], [ 0, %bipbuf_unused.exit.thread ], [ %1, %21 ], [ %1, %31 ]
  ret i32 %.0
}